; ModuleID = '38/40.c'
source_filename = "38/40.c"
target datalayout = "e-m:e-p270:32:32-p271:32:32-p272:64:64-i64:64-f80:128-n8:16:32:64-S128"
target triple = "x86_64-pc-linux-gnu"

@.str = private unnamed_addr constant [3 x i8] c"%d\00", align 1
@.str.1 = private unnamed_addr constant [4 x i8] c"%lf\00", align 1
@.str.2 = private unnamed_addr constant [6 x i8] c"%.5f\0A\00", align 1

; Function Attrs: noinline nounwind uwtable
define dso_local i32 @main(i32 %0, i8** %1) #0 {
  %3 = alloca i32, align 4
  %4 = alloca i32, align 4
  %5 = alloca i8**, align 8
  %6 = alloca i32, align 4
  %7 = alloca i32, align 4
  %8 = alloca i32, align 4
  %9 = alloca i32, align 4
  %10 = alloca [101 x double], align 16
  %11 = alloca double, align 8
  %12 = alloca double, align 8
  %13 = alloca double, align 8
  %14 = alloca double, align 8
  store i32 0, i32* %3, align 4
  store i32 %0, i32* %4, align 4
  store i8** %1, i8*** %5, align 8
  %15 = call i32 (i8*, ...) @__isoc99_scanf(i8* getelementptr inbounds ([3 x i8], [3 x i8]* @.str, i64 0, i64 0), i32* %6)
  store i32 0, i32* %7, align 4
  br label %16

16:                                               ; preds = %80, %2
  %17 = load i32, i32* %7, align 4
  %18 = load i32, i32* %6, align 4
  %19 = icmp slt i32 %17, %18
  br i1 %19, label %20, label %83

20:                                               ; preds = %16
  %21 = call i32 (i8*, ...) @__isoc99_scanf(i8* getelementptr inbounds ([3 x i8], [3 x i8]* @.str, i64 0, i64 0), i32* %9)
  store double 0.000000e+00, double* %11, align 8
  store double 0.000000e+00, double* %13, align 8
  store i32 0, i32* %8, align 4
  br label %22

22:                                               ; preds = %39, %20
  %23 = load i32, i32* %8, align 4
  %24 = load i32, i32* %9, align 4
  %25 = icmp slt i32 %23, %24
  br i1 %25, label %26, label %42

26:                                               ; preds = %22
  %27 = getelementptr inbounds [101 x double], [101 x double]* %10, i64 0, i64 0
  %28 = load i32, i32* %8, align 4
  %29 = sext i32 %28 to i64
  %30 = getelementptr inbounds double, double* %27, i64 %29
  %31 = call i32 (i8*, ...) @__isoc99_scanf(i8* getelementptr inbounds ([4 x i8], [4 x i8]* @.str.1, i64 0, i64 0), double* %30)
  %32 = load double, double* %11, align 8
  %33 = getelementptr inbounds [101 x double], [101 x double]* %10, i64 0, i64 0
  %34 = load i32, i32* %8, align 4
  %35 = sext i32 %34 to i64
  %36 = getelementptr inbounds double, double* %33, i64 %35
  %37 = load double, double* %36, align 8
  %38 = fadd double %32, %37
  store double %38, double* %11, align 8
  br label %39

39:                                               ; preds = %26
  %40 = load i32, i32* %8, align 4
  %41 = add nsw i32 %40, 1
  store i32 %41, i32* %8, align 4
  br label %22

42:                                               ; preds = %22
  %43 = load double, double* %11, align 8
  %44 = load i32, i32* %9, align 4
  %45 = sitofp i32 %44 to double
  %46 = fdiv double %43, %45
  store double %46, double* %12, align 8
  store i32 0, i32* %8, align 4
  br label %47

47:                                               ; preds = %69, %42
  %48 = load i32, i32* %8, align 4
  %49 = load i32, i32* %9, align 4
  %50 = icmp slt i32 %48, %49
  br i1 %50, label %51, label %72

51:                                               ; preds = %47
  %52 = load double, double* %13, align 8
  %53 = getelementptr inbounds [101 x double], [101 x double]* %10, i64 0, i64 0
  %54 = load i32, i32* %8, align 4
  %55 = sext i32 %54 to i64
  %56 = getelementptr inbounds double, double* %53, i64 %55
  %57 = load double, double* %56, align 8
  %58 = load double, double* %12, align 8
  %59 = fsub double %57, %58
  %60 = getelementptr inbounds [101 x double], [101 x double]* %10, i64 0, i64 0
  %61 = load i32, i32* %8, align 4
  %62 = sext i32 %61 to i64
  %63 = getelementptr inbounds double, double* %60, i64 %62
  %64 = load double, double* %63, align 8
  %65 = load double, double* %12, align 8
  %66 = fsub double %64, %65
  %67 = fmul double %59, %66
  %68 = fadd double %52, %67
  store double %68, double* %13, align 8
  br label %69

69:                                               ; preds = %51
  %70 = load i32, i32* %8, align 4
  %71 = add nsw i32 %70, 1
  store i32 %71, i32* %8, align 4
  br label %47

72:                                               ; preds = %47
  %73 = load double, double* %13, align 8
  %74 = load i32, i32* %9, align 4
  %75 = sitofp i32 %74 to double
  %76 = fdiv double %73, %75
  %77 = call double @sqrt(double %76) #3
  store double %77, double* %14, align 8
  %78 = load double, double* %14, align 8
  %79 = call i32 (i8*, ...) @printf(i8* getelementptr inbounds ([6 x i8], [6 x i8]* @.str.2, i64 0, i64 0), double %78)
  br label %80

80:                                               ; preds = %72
  %81 = load i32, i32* %7, align 4
  %82 = add nsw i32 %81, 1
  store i32 %82, i32* %7, align 4
  br label %16

83:                                               ; preds = %16
  ret i32 0
}

declare dso_local i32 @__isoc99_scanf(i8*, ...) #1

; Function Attrs: nounwind
declare dso_local double @sqrt(double) #2

declare dso_local i32 @printf(i8*, ...) #1


!llvm.module.flags = !{!0}
!llvm.ident = !{!1}

!0 = !{i32 1, !"wchar_size", i32 4}
!1 = !{!"clang version 10.0.0-4ubuntu1 "}
